target datalayout = "e-m:e-p270:32:32-p271:32:32-p272:64:64-i64:64-i128:128-f80:128-n8:16:32:64-S128"
target triple = "x86_64-pc-linux-gnu"

; Function Attrs: nounwind uwtable
define void @png_write_rows(ptr noalias noundef %0, ptr noundef %1, i32 noundef %2) #0 {
  %4 = alloca ptr, align 8
  %5 = alloca ptr, align 8
  %6 = alloca i32, align 4
  %7 = alloca i32, align 4
  %8 = alloca ptr, align 8
  store ptr %0, ptr %4, align 8
  store ptr %1, ptr %5, align 8
  store i32 %2, ptr %6, align 4
  %9 = load ptr, ptr %4, align 8
  %10 = icmp eq ptr %9, null
  br i1 %10, label %11, label %12

11:                                               ; preds = %3
  br label %27

12:                                               ; preds = %3
  store i32 0, ptr %7, align 4
  %13 = load ptr, ptr %5, align 8
  store ptr %13, ptr %8, align 8
  br label %14

14:                                               ; preds = %22, %12
  %15 = load i32, ptr %7, align 4
  %16 = load i32, ptr %6, align 4
  %17 = icmp ult i32 %15, %16
  br i1 %17, label %18, label %27

18:                                               ; preds = %14
  %19 = load ptr, ptr %4, align 8
  %20 = load ptr, ptr %8, align 8
  %21 = load ptr, ptr %20, align 8
  call void @png_write_row(ptr noundef %19, ptr noundef %21)
  br label %22

22:                                               ; preds = %18
  %23 = load i32, ptr %7, align 4
  %24 = add i32 %23, 1
  store i32 %24, ptr %7, align 4
  %25 = load ptr, ptr %8, align 8
  %26 = getelementptr inbounds ptr, ptr %25, i32 1
  store ptr %26, ptr %8, align 8
  br label %14, !llvm.loop !10

27:                                               ; preds = %14, %11
  ret void
}