; Function Attrs: nounwind uwtable
define void @png_write_rows(ptr noalias noundef %0, ptr nocapture noundef readonly %1, i32 noundef %2) local_unnamed_addr #0 {
  %4 = icmp ne ptr %0, null
  %5 = icmp ne i32 %2, 0
  %or.cond = and i1 %4, %5
  br i1 %or.cond, label %.lr.ph, label %.loopexit

.lr.ph:                                           ; preds = %3, %.lr.ph
  %.010 = phi ptr [ %8, %.lr.ph ], [ %1, %3 ]
  %.079 = phi i32 [ %7, %.lr.ph ], [ 0, %3 ]
  %6 = load ptr, ptr %.010, align 8
  tail call void @png_write_row(ptr noundef nonnull %0, ptr noundef %6)
  %7 = add nuw i32 %.079, 1
  %8 = getelementptr inbounds i8, ptr %.010, i64 8
  %exitcond.not = icmp eq i32 %7, %2
  br i1 %exitcond.not, label %.loopexit, label %.lr.ph, !llvm.loop !25

.loopexit:                                        ; preds = %.lr.ph, %3
  ret void
}